; Function Attrs: mustprogress uwtable
define void @_ZNK5boost3log11v2_mt_posix4core21get_thread_attributesEv(ptr dead_on_unwind noalias writable sret(%"class.boost::log::v2_mt_posix::attribute_set") align 8 %0, ptr nocapture noundef nonnull readonly align 8 dereferenceable(8) %1) local_unnamed_addr #4 align 2 {
  %3 = load ptr, ptr %1, align 8, !tbaa !33
  %4 = getelementptr inbounds nuw i8, ptr %3, i64 104
  %5 = tail call noundef ptr @_ZN5boost6detail12get_tss_dataEPKv(ptr noundef nonnull align 8 dereferenceable(8) %4)
  %.not.i = icmp eq ptr %5, null
  br i1 %.not.i, label %6, label %_ZN5boost3log11v2_mt_posix4core14implementation15get_thread_dataEv.exit, !prof !76

6:                                                ; preds = %2
  tail call void @_ZN5boost3log11v2_mt_posix4core14implementation16init_thread_dataEv(ptr noundef nonnull align 8 dereferenceable(136) %3)
  %7 = tail call noundef ptr @_ZN5boost6detail12get_tss_dataEPKv(ptr noundef nonnull align 8 dereferenceable(8) %4)
  br label %_ZN5boost3log11v2_mt_posix4core14implementation15get_thread_dataEv.exit

_ZN5boost3log11v2_mt_posix4core14implementation15get_thread_dataEv.exit: ; preds = %2, %6
  %.0.i = phi ptr [ %7, %6 ], [ %5, %2 ]
  tail call void @_ZN5boost3log11v2_mt_posix13attribute_setC1ERKS2_(ptr noundef nonnull align 8 dereferenceable(8) %0, ptr noundef nonnull align 8 dereferenceable(8) %.0.i)
  ret void
}